; Function Attrs: nounwind uwtable
define internal ptr @cmath_acosh(ptr readnone captures(none) %0, ptr noundef %1) #0 {
  %3 = tail call { double, double } @PyComplex_AsCComplex(ptr noundef %1) #11
  %4 = tail call ptr @PyErr_Occurred() #11
  %.not = icmp eq ptr %4, null
  br i1 %.not, label %5, label %63

5:                                                ; preds = %2
  %6 = extractvalue { double, double } %3, 1
  %7 = extractvalue { double, double } %3, 0
  %8 = tail call ptr @__errno_location() #12
  store i32 0, ptr %8, align 4, !tbaa !3
  %9 = tail call double @llvm.fabs.f64(double %7)
  %10 = fcmp ueq double %9, 0x7FF0000000000000
  %11 = tail call double @llvm.fabs.f64(double %6)
  %12 = fcmp ueq double %11, 0x7FF0000000000000
  %or.cond.i = select i1 %10, i1 true, i1 %12
  br i1 %or.cond.i, label %13, label %36

13:                                               ; preds = %5
  br i1 %10, label %20, label %14

14:                                               ; preds = %13
  %15 = fcmp une double %7, 0.000000e+00
  %16 = tail call double @llvm.copysign.f64(double 1.000000e+00, double %7)
  %17 = fcmp oeq double %16, 1.000000e+00
  br i1 %15, label %18, label %19

18:                                               ; preds = %14
  %..i.i = select i1 %17, i64 4, i64 1
  br label %special_type.exit.i

19:                                               ; preds = %14
  %.7.i.i = select i1 %17, i64 3, i64 2
  br label %special_type.exit.i

20:                                               ; preds = %13
  %21 = fcmp uno double %7, 0.000000e+00
  br i1 %21, label %special_type.exit.i, label %22

22:                                               ; preds = %20
  %23 = tail call double @llvm.copysign.f64(double 1.000000e+00, double %7)
  %24 = fcmp oeq double %23, 1.000000e+00
  %.8.i.i = select i1 %24, i64 5, i64 0
  br label %special_type.exit.i

special_type.exit.i:                              ; preds = %22, %20, %19, %18
  %.0.i.i = phi i64 [ %..i.i, %18 ], [ %.7.i.i, %19 ], [ 6, %20 ], [ %.8.i.i, %22 ]
  br i1 %12, label %31, label %25

25:                                               ; preds = %special_type.exit.i
  %26 = fcmp une double %6, 0.000000e+00
  %27 = tail call double @llvm.copysign.f64(double 1.000000e+00, double %6)
  %28 = fcmp oeq double %27, 1.000000e+00
  br i1 %26, label %29, label %30

29:                                               ; preds = %25
  %..i32.i = select i1 %28, i64 4, i64 1
  br label %cmath_acosh_impl.exit

30:                                               ; preds = %25
  %.7.i30.i = select i1 %28, i64 3, i64 2
  br label %cmath_acosh_impl.exit

31:                                               ; preds = %special_type.exit.i
  %32 = fcmp uno double %6, 0.000000e+00
  br i1 %32, label %cmath_acosh_impl.exit, label %33

33:                                               ; preds = %31
  %34 = tail call double @llvm.copysign.f64(double 1.000000e+00, double %6)
  %35 = fcmp oeq double %34, 1.000000e+00
  %.8.i33.i = select i1 %35, i64 5, i64 0
  br label %cmath_acosh_impl.exit

36:                                               ; preds = %5
  %37 = fcmp ogt double %9, 0x7FCFFFFFFFFFFFFF
  %38 = fcmp ogt double %11, 0x7FCFFFFFFFFFFFFF
  %or.cond29.i = select i1 %37, i1 true, i1 %38
  br i1 %or.cond29.i, label %39, label %46

39:                                               ; preds = %36
  %40 = fmul double %7, 5.000000e-01
  %41 = fmul double %6, 5.000000e-01
  %42 = tail call double @hypot(double noundef %40, double noundef %41) #11, !tbaa !3
  %43 = tail call double @log(double noundef %42) #11, !tbaa !3
  %44 = fadd double %43, 0x3FF62E42FEFA39EF
  %45 = tail call double @atan2(double noundef %6, double noundef %7) #11, !tbaa !3
  br label %cmath_acosh_impl.exit.thread

46:                                               ; preds = %36
  %47 = fadd double %7, -1.000000e+00
  %48 = tail call fastcc { double, double } @cmath_sqrt_impl(double %47, double %6)
  %49 = extractvalue { double, double } %48, 0
  %50 = extractvalue { double, double } %48, 1
  %51 = fadd double %7, 1.000000e+00
  %52 = tail call fastcc { double, double } @cmath_sqrt_impl(double %51, double %6)
  %53 = extractvalue { double, double } %52, 0
  %54 = extractvalue { double, double } %52, 1
  %55 = fmul double %50, %54
  %56 = tail call double @llvm.fmuladd.f64(double %49, double %53, double %55)
  %57 = tail call double @asinh(double noundef %56) #11, !tbaa !3
  %58 = tail call double @atan2(double noundef %50, double noundef %53) #11, !tbaa !3
  %59 = fmul double %58, 2.000000e+00
  br label %cmath_acosh_impl.exit.thread

cmath_acosh_impl.exit.thread:                     ; preds = %39, %46
  %.sroa.03.0.i = phi double [ %44, %39 ], [ %57, %46 ]
  %.sroa.5.0.i = phi double [ %45, %39 ], [ %59, %46 ]
  store i32 0, ptr %8, align 4, !tbaa !3
  br label %61

cmath_acosh_impl.exit:                            ; preds = %29, %30, %31, %33
  %.0.i31.i = phi i64 [ %..i32.i, %29 ], [ %.7.i30.i, %30 ], [ 6, %31 ], [ %.8.i33.i, %33 ]
  %60 = getelementptr [7 x [7 x %struct.Py_complex]], ptr @acosh_special_values, i64 0, i64 %.0.i.i, i64 %.0.i31.i
  %.sroa.026.0.copyload.i = load double, ptr %60, align 16, !tbaa !7
  %.sroa.3.0..sroa_idx.i = getelementptr inbounds nuw i8, ptr %60, i64 8
  %.sroa.3.0.copyload.i = load double, ptr %.sroa.3.0..sroa_idx.i, align 8, !tbaa !7
  br label %61

61:                                               ; preds = %cmath_acosh_impl.exit, %cmath_acosh_impl.exit.thread
  %.sroa.3.0.i15 = phi double [ %.sroa.5.0.i, %cmath_acosh_impl.exit.thread ], [ %.sroa.3.0.copyload.i, %cmath_acosh_impl.exit ]
  %.sroa.026.0.i14 = phi double [ %.sroa.03.0.i, %cmath_acosh_impl.exit.thread ], [ %.sroa.026.0.copyload.i, %cmath_acosh_impl.exit ]
  %62 = tail call ptr @PyComplex_FromCComplex(double %.sroa.026.0.i14, double %.sroa.3.0.i15) #11
  br label %63

63:                                               ; preds = %2, %61
  %.0 = phi ptr [ null, %2 ], [ %62, %61 ]
  ret ptr %.0
}